target datalayout = "e-m:e-p270:32:32-p271:32:32-p272:64:64-i64:64-i128:128-f80:128-n8:16:32:64-S128"
target triple = "x86_64-pc-linux-gnu"

%struct.Abc_Ntk_t_ = type { i32, i32, ptr, ptr, ptr, ptr, ptr, ptr, ptr, ptr, ptr, ptr, ptr, [11 x i32], i32, i32, i32, i32, ptr, i32, ptr, ptr, i32, i32, i32, double, i32, %struct.Vec_Int_t_, ptr, ptr, ptr, ptr, ptr, float, i32, ptr, ptr, ptr, ptr, ptr, ptr, ptr, ptr, ptr, ptr, ptr, ptr, ptr, ptr, ptr, ptr, ptr, ptr, ptr, ptr, ptr }
%struct.Vec_Int_t_ = type { i32, i32, ptr }
%struct.Vec_Ptr_t_ = type { i32, i32, ptr }
%struct.Abc_Obj_t_ = type { ptr, ptr, i32, i32, %struct.Vec_Int_t_, %struct.Vec_Int_t_, %union.anon, %union.anon.0 }
%union.anon = type { ptr }
%union.anon.0 = type { ptr }

@.str.15 = private unnamed_addr constant [4 x i8] c" \\\0A\00", align 1
@.str.40 = private unnamed_addr constant [4 x i8] c" %s\00", align 1

; Function Attrs: nounwind uwtable
define internal ptr @Vec_PtrEntry(ptr noundef %0, i32 noundef %1) #0 {
  %3 = alloca ptr, align 8
  %4 = alloca i32, align 4
  store ptr %0, ptr %3, align 8
  store i32 %1, ptr %4, align 4
  %5 = load ptr, ptr %3, align 8
  %6 = getelementptr inbounds %struct.Vec_Ptr_t_, ptr %5, i32 0, i32 2
  %7 = load ptr, ptr %6, align 8
  %8 = load i32, ptr %4, align 4
  %9 = sext i32 %8 to i64
  %10 = getelementptr inbounds ptr, ptr %7, i64 %9
  %11 = load ptr, ptr %10, align 8
  ret ptr %11
}

; Function Attrs: nounwind uwtable
define internal i32 @Vec_PtrSize(ptr noundef %0) #0 {
  %2 = alloca ptr, align 8
  store ptr %0, ptr %2, align 8
  %3 = load ptr, ptr %2, align 8
  %4 = getelementptr inbounds %struct.Vec_Ptr_t_, ptr %3, i32 0, i32 1
  %5 = load i32, ptr %4, align 4
  ret i32 %5
}

; Function Attrs: nounwind uwtable
define internal ptr @Abc_NtkCi(ptr noundef %0, i32 noundef %1) #0 {
  %3 = alloca ptr, align 8
  %4 = alloca i32, align 4
  store ptr %0, ptr %3, align 8
  store i32 %1, ptr %4, align 4
  %5 = load ptr, ptr %3, align 8
  %6 = getelementptr inbounds %struct.Abc_Ntk_t_, ptr %5, i32 0, i32 8
  %7 = load ptr, ptr %6, align 8
  %8 = load i32, ptr %4, align 4
  %9 = call ptr @Vec_PtrEntry(ptr noundef %7, i32 noundef %8)
  ret ptr %9
}

; Function Attrs: nounwind uwtable
define internal i32 @Abc_NtkCiNum(ptr noundef %0) #0 {
  %2 = alloca ptr, align 8
  store ptr %0, ptr %2, align 8
  %3 = load ptr, ptr %2, align 8
  %4 = getelementptr inbounds %struct.Abc_Ntk_t_, ptr %3, i32 0, i32 8
  %5 = load ptr, ptr %4, align 8
  %6 = call i32 @Vec_PtrSize(ptr noundef %5)
  ret i32 %6
}

; Function Attrs: nounwind uwtable
define internal ptr @Abc_ObjFanout0(ptr noundef %0) #0 {
  %2 = alloca ptr, align 8
  store ptr %0, ptr %2, align 8
  %3 = load ptr, ptr %2, align 8
  %4 = getelementptr inbounds %struct.Abc_Obj_t_, ptr %3, i32 0, i32 0
  %5 = load ptr, ptr %4, align 8
  %6 = getelementptr inbounds %struct.Abc_Ntk_t_, ptr %5, i32 0, i32 5
  %7 = load ptr, ptr %6, align 8
  %8 = getelementptr inbounds %struct.Vec_Ptr_t_, ptr %7, i32 0, i32 2
  %9 = load ptr, ptr %8, align 8
  %10 = load ptr, ptr %2, align 8
  %11 = getelementptr inbounds %struct.Abc_Obj_t_, ptr %10, i32 0, i32 5
  %12 = getelementptr inbounds %struct.Vec_Int_t_, ptr %11, i32 0, i32 2
  %13 = load ptr, ptr %12, align 8
  %14 = getelementptr inbounds i32, ptr %13, i64 0
  %15 = load i32, ptr %14, align 4
  %16 = sext i32 %15 to i64
  %17 = getelementptr inbounds ptr, ptr %9, i64 %16
  %18 = load ptr, ptr %17, align 8
  ret ptr %18
}

; Function Attrs: nounwind uwtable
define internal ptr @Abc_NtkPi(ptr noundef %0, i32 noundef %1) #0 {
  %3 = alloca ptr, align 8
  %4 = alloca i32, align 4
  store ptr %0, ptr %3, align 8
  store i32 %1, ptr %4, align 4
  %5 = load ptr, ptr %3, align 8
  %6 = getelementptr inbounds %struct.Abc_Ntk_t_, ptr %5, i32 0, i32 6
  %7 = load ptr, ptr %6, align 8
  %8 = load i32, ptr %4, align 4
  %9 = call ptr @Vec_PtrEntry(ptr noundef %7, i32 noundef %8)
  ret ptr %9
}

; Function Attrs: nounwind uwtable
define internal i32 @Abc_NtkPiNum(ptr noundef %0) #0 {
  %2 = alloca ptr, align 8
  store ptr %0, ptr %2, align 8
  %3 = load ptr, ptr %2, align 8
  %4 = getelementptr inbounds %struct.Abc_Ntk_t_, ptr %3, i32 0, i32 6
  %5 = load ptr, ptr %4, align 8
  %6 = call i32 @Vec_PtrSize(ptr noundef %5)
  ret i32 %6
}

; Function Attrs: nounwind uwtable
define internal void @Io_NtkWritePis(ptr noundef %0, ptr noundef %1, i32 noundef %2) #0 {
  %4 = alloca ptr, align 8
  %5 = alloca ptr, align 8
  %6 = alloca i32, align 4
  %7 = alloca ptr, align 8
  %8 = alloca ptr, align 8
  %9 = alloca i32, align 4
  %10 = alloca i32, align 4
  %11 = alloca i32, align 4
  %12 = alloca i32, align 4
  store ptr %0, ptr %4, align 8
  store ptr %1, ptr %5, align 8
  store i32 %2, ptr %6, align 4
  store i32 7, ptr %9, align 4
  store i32 0, ptr %11, align 4
  %13 = load i32, ptr %6, align 4
  %14 = icmp ne i32 %13, 0
  br i1 %14, label %15, label %60

15:                                               ; preds = %3
  store i32 0, ptr %12, align 4
  br label %16

16:                                               ; preds = %56, %15
  %17 = load i32, ptr %12, align 4
  %18 = load ptr, ptr %5, align 8
  %19 = call i32 @Abc_NtkPiNum(ptr noundef %18)
  %20 = icmp slt i32 %17, %19
  br i1 %20, label %21, label %25

21:                                               ; preds = %16
  %22 = load ptr, ptr %5, align 8
  %23 = load i32, ptr %12, align 4
  %24 = call ptr @Abc_NtkPi(ptr noundef %22, i32 noundef %23)
  store ptr %24, ptr %7, align 8
  br label %25

25:                                               ; preds = %21, %16
  %26 = phi i1 [ false, %16 ], [ true, %21 ]
  br i1 %26, label %27, label %59

27:                                               ; preds = %25
  %28 = load ptr, ptr %7, align 8
  %29 = call ptr @Abc_ObjFanout0(ptr noundef %28)
  store ptr %29, ptr %8, align 8
  %30 = load ptr, ptr %8, align 8
  %31 = call ptr @Abc_ObjName(ptr noundef %30)
  %32 = call i64 @strlen(ptr noundef %31) #8
  %33 = add i64 %32, 1
  %34 = trunc i64 %33 to i32
  store i32 %34, ptr %10, align 4
  %35 = load i32, ptr %11, align 4
  %36 = icmp ne i32 %35, 0
  br i1 %36, label %37, label %46

37:                                               ; preds = %27
  %38 = load i32, ptr %9, align 4
  %39 = load i32, ptr %10, align 4
  %40 = add nsw i32 %38, %39
  %41 = add nsw i32 %40, 3
  %42 = icmp sgt i32 %41, 78
  br i1 %42, label %43, label %46

43:                                               ; preds = %37
  %44 = load ptr, ptr %4, align 8
  %45 = call i32 (ptr, ptr, ...) @fprintf(ptr noundef %44, ptr noundef @.str.15) #7
  store i32 0, ptr %9, align 4
  store i32 0, ptr %11, align 4
  br label %46

46:                                               ; preds = %43, %37, %27
  %47 = load ptr, ptr %4, align 8
  %48 = load ptr, ptr %8, align 8
  %49 = call ptr @Abc_ObjName(ptr noundef %48)
  %50 = call i32 (ptr, ptr, ...) @fprintf(ptr noundef %47, ptr noundef @.str.40, ptr noundef %49) #7
  %51 = load i32, ptr %10, align 4
  %52 = load i32, ptr %9, align 4
  %53 = add nsw i32 %52, %51
  store i32 %53, ptr %9, align 4
  %54 = load i32, ptr %11, align 4
  %55 = add nsw i32 %54, 1
  store i32 %55, ptr %11, align 4
  br label %56

56:                                               ; preds = %46
  %57 = load i32, ptr %12, align 4
  %58 = add nsw i32 %57, 1
  store i32 %58, ptr %12, align 4
  br label %16, !llvm.loop !8

59:                                               ; preds = %25
  br label %105

60:                                               ; preds = %3
  store i32 0, ptr %12, align 4
  br label %61

61:                                               ; preds = %101, %60
  %62 = load i32, ptr %12, align 4
  %63 = load ptr, ptr %5, align 8
  %64 = call i32 @Abc_NtkCiNum(ptr noundef %63)
  %65 = icmp slt i32 %62, %64
  br i1 %65, label %66, label %70

66:                                               ; preds = %61
  %67 = load ptr, ptr %5, align 8
  %68 = load i32, ptr %12, align 4
  %69 = call ptr @Abc_NtkCi(ptr noundef %67, i32 noundef %68)
  store ptr %69, ptr %7, align 8
  br label %70

70:                                               ; preds = %66, %61
  %71 = phi i1 [ false, %61 ], [ true, %66 ]
  br i1 %71, label %72, label %104

72:                                               ; preds = %70
  %73 = load ptr, ptr %7, align 8
  %74 = call ptr @Abc_ObjFanout0(ptr noundef %73)
  store ptr %74, ptr %8, align 8
  %75 = load ptr, ptr %8, align 8
  %76 = call ptr @Abc_ObjName(ptr noundef %75)
  %77 = call i64 @strlen(ptr noundef %76) #8
  %78 = add i64 %77, 1
  %79 = trunc i64 %78 to i32
  store i32 %79, ptr %10, align 4
  %80 = load i32, ptr %11, align 4
  %81 = icmp ne i32 %80, 0
  br i1 %81, label %82, label %91

82:                                               ; preds = %72
  %83 = load i32, ptr %9, align 4
  %84 = load i32, ptr %10, align 4
  %85 = add nsw i32 %83, %84
  %86 = add nsw i32 %85, 3
  %87 = icmp sgt i32 %86, 78
  br i1 %87, label %88, label %91

88:                                               ; preds = %82
  %89 = load ptr, ptr %4, align 8
  %90 = call i32 (ptr, ptr, ...) @fprintf(ptr noundef %89, ptr noundef @.str.15) #7
  store i32 0, ptr %9, align 4
  store i32 0, ptr %11, align 4
  br label %91

91:                                               ; preds = %88, %82, %72
  %92 = load ptr, ptr %4, align 8
  %93 = load ptr, ptr %8, align 8
  %94 = call ptr @Abc_ObjName(ptr noundef %93)
  %95 = call i32 (ptr, ptr, ...) @fprintf(ptr noundef %92, ptr noundef @.str.40, ptr noundef %94) #7
  %96 = load i32, ptr %10, align 4
  %97 = load i32, ptr %9, align 4
  %98 = add nsw i32 %97, %96
  store i32 %98, ptr %9, align 4
  %99 = load i32, ptr %11, align 4
  %100 = add nsw i32 %99, 1
  store i32 %100, ptr %11, align 4
  br label %101

101:                                              ; preds = %91
  %102 = load i32, ptr %12, align 4
  %103 = add nsw i32 %102, 1
  store i32 %103, ptr %12, align 4
  br label %61, !llvm.loop !9

104:                                              ; preds = %70
  br label %105

105:                                              ; preds = %104, %59
  ret void
}